; Function Attrs: nounwind sspstrong uwtable
define internal range(i64 1, 0) i64 @ossl_digest_block_length(i64 noundef %0) #0 {
  %2 = tail call ptr @rb_check_typeddata(i64 noundef %0, ptr noundef nonnull @ossl_digest_type) #4
  %.not = icmp eq ptr %2, null
  br i1 %.not, label %3, label %5

3:                                                ; preds = %1
  %4 = load i64, ptr @rb_eRuntimeError, align 8, !tbaa !6
  tail call void (i64, ptr, ...) @ossl_raise(i64 noundef %4, ptr noundef nonnull @.str.1) #5
  unreachable

5:                                                ; preds = %1
  %6 = tail call ptr @EVP_MD_CTX_get0_md(ptr noundef nonnull %2) #4
  %7 = tail call i32 @EVP_MD_get_block_size(ptr noundef %6) #4
  %8 = sext i32 %7 to i64
  %9 = shl nsw i64 %8, 1
  %10 = or disjoint i64 %9, 1
  ret i64 %10
}